; Function Attrs: nofree norecurse nosync nounwind memory(argmem: readwrite) uwtable
define internal void @dcmul_add_c(ptr noundef captures(none) %0, ptr noundef readonly captures(none) %1, ptr noundef readonly captures(none) %2, i64 noundef %3) #6 {
  %5 = icmp sgt i64 %3, 0
  br i1 %5, label %.lr.ph, label %._crit_edge

.lr.ph:                                           ; preds = %4, %.lr.ph
  %indvars.iv = phi i64 [ %indvars.iv.next, %.lr.ph ], [ 0, %4 ]
  %6 = shl nuw nsw i64 %indvars.iv, 1
  %7 = getelementptr inbounds nuw double, ptr %2, i64 %6
  %8 = load double, ptr %7, align 8, !tbaa !114
  %9 = or disjoint i64 %6, 1
  %10 = getelementptr inbounds nuw double, ptr %2, i64 %9
  %11 = load double, ptr %10, align 8, !tbaa !114
  %12 = getelementptr inbounds nuw double, ptr %1, i64 %6
  %13 = load double, ptr %12, align 8, !tbaa !114
  %14 = getelementptr inbounds nuw double, ptr %1, i64 %9
  %15 = load double, ptr %14, align 8, !tbaa !114
  %16 = fneg nsz double %11
  %17 = fmul nsz double %15, %16
  %18 = tail call nsz double @llvm.fmuladd.f64(double %13, double %8, double %17)
  %19 = getelementptr inbounds nuw double, ptr %0, i64 %6
  %20 = load double, ptr %19, align 8, !tbaa !114
  %21 = fadd nsz double %20, %18
  store double %21, ptr %19, align 8, !tbaa !114
  %22 = fmul nsz double %8, %15
  %23 = tail call nsz double @llvm.fmuladd.f64(double %13, double %11, double %22)
  %24 = getelementptr inbounds nuw double, ptr %0, i64 %9
  %25 = load double, ptr %24, align 8, !tbaa !114
  %26 = fadd nsz double %23, %25
  store double %26, ptr %24, align 8, !tbaa !114
  %indvars.iv.next = add nuw nsw i64 %indvars.iv, 1
  %exitcond.not = icmp eq i64 %indvars.iv.next, %3
  br i1 %exitcond.not, label %._crit_edge.loopexit, label %.lr.ph, !llvm.loop !157

._crit_edge.loopexit:                             ; preds = %.lr.ph
  %27 = shl nuw i64 %3, 1
  %28 = and i64 %27, 4294967294
  br label %._crit_edge

._crit_edge:                                      ; preds = %._crit_edge.loopexit, %4
  %.0.lcssa = phi i64 [ 0, %4 ], [ %28, %._crit_edge.loopexit ]
  %29 = getelementptr inbounds nuw double, ptr %1, i64 %.0.lcssa
  %30 = load double, ptr %29, align 8, !tbaa !114
  %31 = getelementptr inbounds nuw double, ptr %2, i64 %.0.lcssa
  %32 = load double, ptr %31, align 8, !tbaa !114
  %33 = getelementptr inbounds nuw double, ptr %0, i64 %.0.lcssa
  %34 = load double, ptr %33, align 8, !tbaa !114
  %35 = tail call nsz double @llvm.fmuladd.f64(double %30, double %32, double %34)
  store double %35, ptr %33, align 8, !tbaa !114
  ret void
}